; Function Attrs: nounwind uwtable
define internal void @_DictRemover_dealloc(ptr noundef %0) #0 {
  %2 = getelementptr i8, ptr %0, i64 8
  %.val = load ptr, ptr %2, align 8, !tbaa !10
  tail call void @PyObject_GC_UnTrack(ptr noundef %0) #17
  %3 = getelementptr inbounds nuw i8, ptr %0, i64 16
  %4 = load ptr, ptr %3, align 8, !tbaa !27
  %.not.i6 = icmp eq ptr %4, null
  br i1 %.not.i6, label %Py_DECREF.exit14.i, label %5

5:                                                ; preds = %1
  store ptr null, ptr %3, align 8, !tbaa !27
  %6 = load i32, ptr %4, align 8, !tbaa !23
  %.not.i13.i = icmp sgt i32 %6, -1
  br i1 %.not.i13.i, label %7, label %Py_DECREF.exit14.i

7:                                                ; preds = %5
  %8 = add nsw i32 %6, -1
  store i32 %8, ptr %4, align 8, !tbaa !23
  %9 = icmp eq i32 %8, 0
  br i1 %9, label %10, label %Py_DECREF.exit14.i

10:                                               ; preds = %7
  tail call void @_Py_Dealloc(ptr noundef nonnull %4) #17
  br label %Py_DECREF.exit14.i

Py_DECREF.exit14.i:                               ; preds = %10, %7, %5, %1
  %11 = getelementptr inbounds nuw i8, ptr %0, i64 24
  %12 = load ptr, ptr %11, align 8, !tbaa !27
  %.not12.i = icmp eq ptr %12, null
  br i1 %.not12.i, label %_DictRemover_clear.exit, label %13

13:                                               ; preds = %Py_DECREF.exit14.i
  store ptr null, ptr %11, align 8, !tbaa !27
  %14 = load i32, ptr %12, align 8, !tbaa !23
  %.not.i.i = icmp sgt i32 %14, -1
  br i1 %.not.i.i, label %15, label %_DictRemover_clear.exit

15:                                               ; preds = %13
  %16 = add nsw i32 %14, -1
  store i32 %16, ptr %12, align 8, !tbaa !23
  %17 = icmp eq i32 %16, 0
  br i1 %17, label %18, label %_DictRemover_clear.exit

18:                                               ; preds = %15
  tail call void @_Py_Dealloc(ptr noundef nonnull %12) #17
  br label %_DictRemover_clear.exit

_DictRemover_clear.exit:                          ; preds = %Py_DECREF.exit14.i, %13, %15, %18
  %19 = getelementptr inbounds nuw i8, ptr %.val, i64 320
  %20 = load ptr, ptr %19, align 8, !tbaa !108
  tail call void %20(ptr noundef nonnull %0) #17
  %21 = load i32, ptr %.val, align 8, !tbaa !23
  %.not.i = icmp sgt i32 %21, -1
  br i1 %.not.i, label %22, label %Py_DECREF.exit

22:                                               ; preds = %_DictRemover_clear.exit
  %23 = add nsw i32 %21, -1
  store i32 %23, ptr %.val, align 8, !tbaa !23
  %24 = icmp eq i32 %23, 0
  br i1 %24, label %25, label %Py_DECREF.exit

25:                                               ; preds = %22
  tail call void @_Py_Dealloc(ptr noundef nonnull %.val) #17
  br label %Py_DECREF.exit

Py_DECREF.exit:                                   ; preds = %_DictRemover_clear.exit, %22, %25
  ret void
}